Certificate:
    Data:
        Version: 3 (0x2)
        Serial Number: 1 (0x1)
    Signature Algorithm: sha1WithRSAEncryption
        Issuer: C=FR, ST=Radius, L=Somewhere, O=Example Inc./emailAddress=admin@example.com, CN=Example Certificate Authority
        Validity
            Not Before: May 20 11:59:36 2014 GMT
            Not After : Jul 19 11:59:36 2014 GMT
        Subject: C=FR, ST=Radius, O=Example Inc., CN=Example Server Certificate/emailAddress=admin@example.com
        Subject Public Key Info:
            Public Key Algorithm: rsaEncryption
                Public-Key: (2048 bit)
                Modulus:
                    00:a7:cb:f5:cc:1f:6d:38:51:93:13:55:a5:87:ea:
                    b8:aa:1b:7b:10:ee:cf:ba:d4:ee:17:b2:a7:ef:d3:
                    0c:86:1c:a3:d3:25:67:83:9f:98:8f:e5:73:b0:9a:
                    dd:95:c8:a4:7d:c1:77:99:21:2a:76:70:e7:60:9f:
                    af:c6:9f:ea:59:d2:52:5d:56:a0:78:00:ce:b1:13:
                    7f:bf:05:fd:44:5e:01:d1:b8:a5:9a:09:05:cc:4c:
                    65:ee:2b:82:0e:c1:ab:2a:43:0e:cf:41:30:8f:b7:
                    bd:a5:ce:62:89:40:74:b4:1f:87:a4:ea:01:a3:ef:
                    0b:bc:c1:db:9e:24:53:d1:a1:94:7f:c5:c3:a1:fb:
                    f6:e8:12:46:66:ba:3e:d9:b9:ff:34:8f:6d:40:9b:
                    d5:d2:b5:cb:29:a5:98:3d:08:15:cd:87:f4:23:66:
                    d4:b9:34:a3:98:22:bd:c3:17:9e:81:82:47:ed:09:
                    b9:bf:36:7e:a2:c6:5d:89:42:04:08:56:af:2c:0f:
                    b5:9e:d2:3c:82:9e:56:95:5c:34:3d:3e:ac:91:27:
                    50:94:6d:58:9e:68:81:72:1c:a7:50:85:3c:c7:8e:
                    d6:39:73:9b:b9:df:fc:0f:83:13:be:d5:a6:c4:2e:
                    15:45:6b:12:bf:09:c8:48:d9:ac:46:07:40:a2:36:
                    75:f7
                Exponent: 65537 (0x10001)
        X509v3 extensions:
            X509v3 Extended Key Usage: 
                TLS Web Server Authentication
            X509v3 CRL Distribution Points: 

                Full Name:
                  URI:http://www.example.com/example_ca.crl

    Signature Algorithm: sha1WithRSAEncryption
         4e:53:ca:65:d7:b6:85:9e:cb:84:94:ef:ce:8d:00:6e:ed:73:
         dc:e6:df:eb:07:ac:84:b2:89:23:36:fc:58:d3:70:ff:24:8b:
         7c:8f:a5:cc:cc:53:a7:61:a9:15:eb:1c:af:22:2c:14:45:42:
         9f:ca:fc:a1:e1:e5:f0:05:46:ae:25:9e:50:93:e9:d6:44:47:
         83:f3:18:cb:f8:0a:3f:db:cd:bb:db:6f:95:63:df:9e:17:89:
         06:54:32:2e:b3:e2:92:7e:0e:d4:00:e1:8e:50:c0:26:7c:4f:
         f8:d0:00:a0:54:4f:19:8c:d5:23:4e:9f:d5:dc:6f:e4:60:c5:
         12:54:69:20:92:37:37:e8:50:13:5c:37:aa:ce:05:e0:22:f3:
         a4:23:4f:2b:e2:cf:0b:03:79:61:d0:0e:81:6a:16:32:ef:6d:
         8d:6e:f6:0e:61:d8:55:b2:d9:88:42:d7:d1:cd:56:8d:a9:68:
         b4:c1:f2:ac:e3:7a:6b:81:fa:ea:1f:17:69:6a:80:a7:f4:1c:
         6f:0b:84:7e:34:34:fb:e5:19:66:aa:76:33:74:aa:81:8b:14:
         33:c3:39:2c:73:2c:ba:40:74:26:e2:ae:a0:4f:20:b0:d8:f1:
         a3:25:6a:ba:8e:f5:d0:a1:10:c1:32:7c:f3:32:bd:f1:48:b6:
         14:61:10:44
-----BEGIN CERTIFICATE-----
MIID2jCCAsKgAwIBAgIBATANBgkqhkiG9w0BAQUFADCBkzELMAkGA1UEBhMCRlIx
DzANBgNVBAgTBlJhZGl1czESMBAGA1UEBxMJU29tZXdoZXJlMRUwEwYDVQQKEwxF
eGFtcGxlIEluYy4xIDAeBgkqhkiG9w0BCQEWEWFkbWluQGV4YW1wbGUuY29tMSYw
JAYDVQQDEx1FeGFtcGxlIENlcnRpZmljYXRlIEF1dGhvcml0eTAeFw0xNDA1MjAx
MTU5MzZaFw0xNDA3MTkxMTU5MzZaMHwxCzAJBgNVBAYTAkZSMQ8wDQYDVQQIEwZS
YWRpdXMxFTATBgNVBAoTDEV4YW1wbGUgSW5jLjEjMCEGA1UEAxMaRXhhbXBsZSBT
ZXJ2ZXIgQ2VydGlmaWNhdGUxIDAeBgkqhkiG9w0BCQEWEWFkbWluQGV4YW1wbGUu
Y29tMIIBIjANBgkqhkiG9w0BAQEFAAOCAQ8AMIIBCgKCAQEAp8v1zB9tOFGTE1Wl
h+q4qht7EO7PutTuF7Kn79MMhhyj0yVng5+Yj+VzsJrdlcikfcF3mSEqdnDnYJ+v
xp/qWdJSXVageADOsRN/vwX9RF4B0bilmgkFzExl7iuCDsGrKkMOz0Ewj7e9pc5i
iUB0tB+HpOoBo+8LvMHbniRT0aGUf8XDofv26BJGZro+2bn/NI9tQJvV0rXLKaWY
PQgVzYf0I2bUuTSjmCK9wxeegYJH7Qm5vzZ+osZdiUIECFavLA+1ntI8gp5WlVw0
PT6skSdQlG1YnmiBchynUIU8x47WOXObud/8D4MTvtWmxC4VRWsSvwnISNmsRgdA
ojZ19wIDAQABo08wTTATBgNVHSUEDDAKBggrBgEFBQcDATA2BgNVHR8ELzAtMCug
KaAnhiVodHRwOi8vd3d3LmV4YW1wbGUuY29tL2V4YW1wbGVfY2EuY3JsMA0GCSqG
SIb3DQEBBQUAA4IBAQBOU8pl17aFnsuElO/OjQBu7XPc5t/rB6yEsokjNvxY03D/
JIt8j6XMzFOnYakV6xyvIiwURUKfyvyh4eXwBUauJZ5Qk+nWREeD8xjL+Ao/2827
22+VY9+eF4kGVDIus+KSfg7UAOGOUMAmfE/40ACgVE8ZjNUjTp/V3G/kYMUSVGkg
kjc36FATXDeqzgXgIvOkI08r4s8LA3lh0A6BahYy722NbvYOYdhVstmIQtfRzVaN
qWi0wfKs43prgfrqHxdpaoCn9BxvC4R+NDT75RlmqnYzdKqBixQzwzkscyy6QHQm
4q6gTyCw2PGjJWq6jvXQoRDBMnzzMr3xSLYUYRBE
-----END CERTIFICATE-----
