Certificate:
    Data:
        Version: 3 (0x2)
        Serial Number: 2 (0x2)
    Signature Algorithm: sha1WithRSAEncryption
        Issuer: C=FR, ST=Radius, L=Somewhere, O=Example Inc./emailAddress=admin@example.com, CN=Example Certificate Authority
        Validity
            Not Before: May 20 11:59:36 2014 GMT
            Not After : Jul 19 11:59:36 2014 GMT
        Subject: C=FR, ST=Radius, O=Example Inc., CN=user@example.com/emailAddress=user@example.com
        Subject Public Key Info:
            Public Key Algorithm: rsaEncryption
                Public-Key: (2048 bit)
                Modulus:
                    00:a4:9c:2f:05:55:18:11:6f:6a:5d:9a:c3:0a:1a:
                    d2:bd:65:8e:2c:c8:14:ff:04:90:2b:07:be:58:0c:
                    93:21:fe:5f:b4:e3:1a:27:4b:65:7f:ab:91:9f:53:
                    06:8f:47:8f:10:cb:d8:3c:87:14:cc:4d:b8:69:1e:
                    58:7c:f6:99:ed:fb:93:d0:7c:a1:58:e7:bf:46:57:
                    53:82:40:4b:93:31:6f:0e:38:ad:8c:a9:9e:11:05:
                    4c:52:3a:75:36:67:5a:7e:b6:59:2f:cb:23:f1:7c:
                    f6:0f:a0:dc:3c:0a:59:46:77:3b:21:82:80:38:d4:
                    53:33:14:b9:38:8c:5a:9a:4c:a5:ca:d9:a3:9c:04:
                    12:75:b6:fd:c9:ff:88:4b:a6:ae:94:71:17:7e:24:
                    80:1f:04:bb:f8:f0:2f:54:85:ec:4a:e6:7a:e8:11:
                    17:12:24:31:14:09:c6:7d:5e:f9:2e:cf:5d:c1:79:
                    a7:4c:78:30:3c:f0:09:e9:2f:f0:4c:43:a9:7d:af:
                    e1:1f:69:e4:b8:0d:52:f0:f5:0d:eb:be:da:38:86:
                    c0:7e:87:46:ee:1c:bd:29:51:ff:3c:a6:7d:3c:84:
                    01:aa:14:eb:fa:0a:22:a5:44:19:b2:74:33:0d:7b:
                    26:ee:6d:47:24:00:5d:e2:30:80:79:d6:8f:ce:0e:
                    71:0f
                Exponent: 65537 (0x10001)
        X509v3 extensions:
            X509v3 Extended Key Usage: 
                TLS Web Client Authentication
            X509v3 CRL Distribution Points: 

                Full Name:
                  URI:http://www.example.com/example_ca.crl

    Signature Algorithm: sha1WithRSAEncryption
         b5:3c:94:f0:64:f0:dd:f9:16:2a:e3:9b:34:19:0f:5a:d3:cf:
         04:a5:ab:43:ae:a5:ab:73:d7:3c:8f:b7:91:43:4a:4a:b5:65:
         5d:36:ef:dc:59:9c:73:16:ca:b0:16:56:bc:a6:43:b3:0a:ea:
         cc:25:0c:88:50:63:a7:87:26:76:ef:6f:14:4f:e7:bd:f3:af:
         84:32:35:35:be:73:e9:ce:47:cd:cf:a1:a6:df:70:cf:4e:25:
         ef:4f:30:6e:57:e5:75:48:1c:ae:53:76:7c:32:96:28:48:3d:
         54:f4:b9:37:8d:51:f5:98:89:16:0e:0b:49:53:14:cc:71:55:
         59:ec:b6:79:b1:62:33:ba:7e:9c:87:fb:7d:72:37:70:0f:ff:
         ec:fe:e4:ba:37:02:ed:4b:c2:94:ea:89:fd:fd:f6:4f:a7:ef:
         b5:a5:6a:20:b2:84:05:d0:b7:30:e9:8d:4f:99:42:13:d6:97:
         4e:8a:54:35:55:81:27:bd:24:43:3d:90:4f:3c:9c:97:74:a9:
         36:d3:4d:df:f2:e3:79:d4:ed:82:d2:2c:b4:78:5e:e3:58:be:
         63:e1:42:91:0f:1c:19:df:07:7a:97:cb:d6:c8:c8:50:38:9c:
         d4:98:90:bc:96:fb:ed:9f:19:c7:cc:3b:8c:be:96:1a:87:42:
         11:01:84:53
-----BEGIN CERTIFICATE-----
MIIDzzCCAregAwIBAgIBAjANBgkqhkiG9w0BAQUFADCBkzELMAkGA1UEBhMCRlIx
DzANBgNVBAgTBlJhZGl1czESMBAGA1UEBxMJU29tZXdoZXJlMRUwEwYDVQQKEwxF
eGFtcGxlIEluYy4xIDAeBgkqhkiG9w0BCQEWEWFkbWluQGV4YW1wbGUuY29tMSYw
JAYDVQQDEx1FeGFtcGxlIENlcnRpZmljYXRlIEF1dGhvcml0eTAeFw0xNDA1MjAx
MTU5MzZaFw0xNDA3MTkxMTU5MzZaMHExCzAJBgNVBAYTAkZSMQ8wDQYDVQQIEwZS
YWRpdXMxFTATBgNVBAoTDEV4YW1wbGUgSW5jLjEZMBcGA1UEAxQQdXNlckBleGFt
cGxlLmNvbTEfMB0GCSqGSIb3DQEJARYQdXNlckBleGFtcGxlLmNvbTCCASIwDQYJ
KoZIhvcNAQEBBQADggEPADCCAQoCggEBAKScLwVVGBFval2awwoa0r1ljizIFP8E
kCsHvlgMkyH+X7TjGidLZX+rkZ9TBo9HjxDL2DyHFMxNuGkeWHz2me37k9B8oVjn
v0ZXU4JAS5Mxbw44rYypnhEFTFI6dTZnWn62WS/LI/F89g+g3DwKWUZ3OyGCgDjU
UzMUuTiMWppMpcrZo5wEEnW2/cn/iEumrpRxF34kgB8Eu/jwL1SF7ErmeugRFxIk
MRQJxn1e+S7PXcF5p0x4MDzwCekv8ExDqX2v4R9p5LgNUvD1Deu+2jiGwH6HRu4c
vSlR/zymfTyEAaoU6/oKIqVEGbJ0Mw17Ju5tRyQAXeIwgHnWj84OcQ8CAwEAAaNP
ME0wEwYDVR0lBAwwCgYIKwYBBQUHAwIwNgYDVR0fBC8wLTAroCmgJ4YlaHR0cDov
L3d3dy5leGFtcGxlLmNvbS9leGFtcGxlX2NhLmNybDANBgkqhkiG9w0BAQUFAAOC
AQEAtTyU8GTw3fkWKuObNBkPWtPPBKWrQ66lq3PXPI+3kUNKSrVlXTbv3FmccxbK
sBZWvKZDswrqzCUMiFBjp4cmdu9vFE/nvfOvhDI1Nb5z6c5Hzc+hpt9wz04l708w
blfldUgcrlN2fDKWKEg9VPS5N41R9ZiJFg4LSVMUzHFVWey2ebFiM7p+nIf7fXI3
cA//7P7kujcC7UvClOqJ/f32T6fvtaVqILKEBdC3MOmNT5lCE9aXTopUNVWBJ70k
Qz2QTzycl3SpNtNN3/LjedTtgtIstHhe41i+Y+FCkQ8cGd8HepfL1sjIUDic1JiQ
vJb77Z8Zx8w7jL6WGodCEQGEUw==
-----END CERTIFICATE-----
